; Function Attrs: nofree norecurse nosync nounwind memory(argmem: readwrite) uwtable
define internal void @blend_pinlight_14bit(ptr noundef readonly captures(none) %0, i64 noundef %1, ptr noundef readonly captures(none) %2, i64 noundef %3, ptr noundef writeonly captures(none) %4, i64 noundef %5, i64 noundef %6, i64 noundef %7, ptr noundef readonly captures(none) %8, ptr readnone captures(none) %9) #6 {
  %11 = getelementptr inbounds nuw i8, ptr %8, i64 8
  %12 = load double, ptr %11, align 8, !tbaa !70
  %13 = fptrunc nsz double %12 to float
  %14 = lshr i64 %5, 1
  %15 = lshr i64 %1, 1
  %16 = lshr i64 %3, 1
  %17 = icmp sgt i64 %7, 0
  %18 = icmp sgt i64 %6, 0
  %or.cond = and i1 %17, %18
  br i1 %or.cond, label %.preheader.us, label %._crit_edge59

.preheader.us:                                    ; preds = %10, %._crit_edge.us
  %indvars.iv63 = phi i64 [ %indvars.iv.next64, %._crit_edge.us ], [ 0, %10 ]
  %.04457.us = phi ptr [ %39, %._crit_edge.us ], [ %4, %10 ]
  %.04556.us = phi ptr [ %41, %._crit_edge.us ], [ %2, %10 ]
  %.04655.us = phi ptr [ %40, %._crit_edge.us ], [ %0, %10 ]
  br label %19

19:                                               ; preds = %.preheader.us, %32
  %indvars.iv = phi i64 [ 0, %.preheader.us ], [ %indvars.iv.next, %32 ]
  %20 = getelementptr inbounds nuw i16, ptr %.04655.us, i64 %indvars.iv
  %21 = load i16, ptr %20, align 2, !tbaa !85
  %22 = zext i16 %21 to i32
  %23 = uitofp i16 %21 to float
  %24 = getelementptr inbounds nuw i16, ptr %.04556.us, i64 %indvars.iv
  %25 = load i16, ptr %24, align 2, !tbaa !85
  %26 = zext i16 %25 to i32
  %27 = icmp ult i16 %25, 8192
  %28 = shl nuw nsw i32 %26, 1
  br i1 %27, label %31, label %29

29:                                               ; preds = %19
  %30 = add nsw i32 %28, -16384
  %.53.us = tail call i32 @llvm.smax.i32(i32 %30, i32 %22)
  br label %32

31:                                               ; preds = %19
  %..us = tail call i32 @llvm.umin.i32(i32 %28, i32 %22)
  br label %32

32:                                               ; preds = %31, %29
  %33 = phi i32 [ %..us, %31 ], [ %.53.us, %29 ]
  %34 = sub nsw i32 %33, %22
  %35 = sitofp i32 %34 to float
  %36 = tail call nsz float @llvm.fmuladd.f32(float %35, float %13, float %23)
  %37 = fptoui float %36 to i16
  %38 = getelementptr inbounds nuw i16, ptr %.04457.us, i64 %indvars.iv
  store i16 %37, ptr %38, align 2, !tbaa !85
  %indvars.iv.next = add nuw nsw i64 %indvars.iv, 1
  %exitcond.not = icmp eq i64 %indvars.iv.next, %6
  br i1 %exitcond.not, label %._crit_edge.us, label %19, !llvm.loop !458

._crit_edge.us:                                   ; preds = %32
  %39 = getelementptr inbounds nuw i16, ptr %.04457.us, i64 %14
  %40 = getelementptr inbounds nuw i16, ptr %.04655.us, i64 %15
  %41 = getelementptr inbounds nuw i16, ptr %.04556.us, i64 %16
  %indvars.iv.next64 = add nuw nsw i64 %indvars.iv63, 1
  %exitcond66.not = icmp eq i64 %indvars.iv.next64, %7
  br i1 %exitcond66.not, label %._crit_edge59, label %.preheader.us, !llvm.loop !459

._crit_edge59:                                    ; preds = %._crit_edge.us, %10
  ret void
}